; Function Attrs: mustprogress uwtable
define hidden void @_ZNK4cvc58internal6theory11TheoryState17getRepresentativeENS0_12NodeTemplateILb0EEE(ptr dead_on_unwind noalias writable sret(%"class.cvc5::internal::NodeTemplate") align 8 %0, ptr noundef nonnull readonly align 8 captures(none) dereferenceable(160) %1, ptr noundef readonly captures(none) %2) unnamed_addr #3 align 2 personality ptr @__gxx_personality_v0 {
  %4 = alloca %"class.cvc5::internal::NodeTemplate", align 8
  %5 = alloca %"class.cvc5::internal::NodeTemplate", align 8
  %6 = getelementptr inbounds nuw i8, ptr %1, i64 24
  %7 = load ptr, ptr %6, align 8, !tbaa !10
  %8 = load ptr, ptr %2, align 8, !tbaa !45
  store ptr %8, ptr %4, align 8, !tbaa !45
  %9 = call noundef zeroext i1 @_ZNK4cvc58internal6theory2eq14EqualityEngine7hasTermENS0_12NodeTemplateILb0EEE(ptr noundef nonnull align 8 dereferenceable(1784) %7, ptr noundef nonnull %4)
  br i1 %9, label %10, label %13

10:                                               ; preds = %3
  %11 = load ptr, ptr %6, align 8, !tbaa !10
  %12 = load ptr, ptr %2, align 8, !tbaa !45
  store ptr %12, ptr %5, align 8, !tbaa !45
  call void @_ZNK4cvc58internal6theory2eq14EqualityEngine17getRepresentativeENS0_12NodeTemplateILb0EEE(ptr dead_on_unwind writable sret(%"class.cvc5::internal::NodeTemplate") align 8 %0, ptr noundef nonnull align 8 dereferenceable(1784) %11, ptr noundef nonnull %5)
  br label %15

13:                                               ; preds = %3
  %14 = load ptr, ptr %2, align 8, !tbaa !45
  store ptr %14, ptr %0, align 8, !tbaa !45
  br label %15

15:                                               ; preds = %10, %13
  ret void
}